target datalayout = "e-m:e-p270:32:32-p271:32:32-p272:64:64-i64:64-i128:128-f80:128-n8:16:32:64-S128"
target triple = "x86_64-pc-linux-gnu"

%struct.ossl_ackm_probe_info_st = type { i32, i32, [3 x i32] }

@.str.3 = private unnamed_addr constant [33 x i8] c"../openssl/test/quic_ackm_test.c\00", align 1
@.str.36 = private unnamed_addr constant [27 x i8] c"p->anti_deadlock_handshake\00", align 1
@.str.37 = private unnamed_addr constant [24 x i8] c"anti_deadlock_handshake\00", align 1
@.str.38 = private unnamed_addr constant [25 x i8] c"p->anti_deadlock_initial\00", align 1
@.str.39 = private unnamed_addr constant [22 x i8] c"anti_deadlock_initial\00", align 1
@.str.40 = private unnamed_addr constant [30 x i8] c"p->pto[QUIC_PN_SPACE_INITIAL]\00", align 1
@.str.41 = private unnamed_addr constant [12 x i8] c"pto_initial\00", align 1
@.str.42 = private unnamed_addr constant [32 x i8] c"p->pto[QUIC_PN_SPACE_HANDSHAKE]\00", align 1
@.str.43 = private unnamed_addr constant [14 x i8] c"pto_handshake\00", align 1
@.str.44 = private unnamed_addr constant [26 x i8] c"p->pto[QUIC_PN_SPACE_APP]\00", align 1
@.str.45 = private unnamed_addr constant [8 x i8] c"pto_app\00", align 1

; Function Attrs: nounwind uwtable
define internal i32 @test_probe_counts(ptr noundef %0, i32 noundef %1, i32 noundef %2, i32 noundef %3, i32 noundef %4, i32 noundef %5) #0 {
  %7 = alloca i32, align 4
  %8 = alloca ptr, align 8
  %9 = alloca i32, align 4
  %10 = alloca i32, align 4
  %11 = alloca i32, align 4
  %12 = alloca i32, align 4
  %13 = alloca i32, align 4
  store ptr %0, ptr %8, align 8, !tbaa !83
  store i32 %1, ptr %9, align 4, !tbaa !4
  store i32 %2, ptr %10, align 4, !tbaa !4
  store i32 %3, ptr %11, align 4, !tbaa !4
  store i32 %4, ptr %12, align 4, !tbaa !4
  store i32 %5, ptr %13, align 4, !tbaa !4
  %14 = load ptr, ptr %8, align 8, !tbaa !83
  %15 = getelementptr inbounds nuw %struct.ossl_ackm_probe_info_st, ptr %14, i32 0, i32 1
  %16 = load i32, ptr %15, align 4, !tbaa !85
  %17 = load i32, ptr %9, align 4, !tbaa !4
  %18 = call i32 @test_uint_eq(ptr noundef @.str.3, i32 noundef 318, ptr noundef @.str.36, ptr noundef @.str.37, i32 noundef %16, i32 noundef %17)
  %19 = icmp ne i32 %18, 0
  br i1 %19, label %21, label %20

20:                                               ; preds = %6
  store i32 0, ptr %7, align 4
  br label %57

21:                                               ; preds = %6
  %22 = load ptr, ptr %8, align 8, !tbaa !83
  %23 = getelementptr inbounds nuw %struct.ossl_ackm_probe_info_st, ptr %22, i32 0, i32 0
  %24 = load i32, ptr %23, align 4, !tbaa !87
  %25 = load i32, ptr %10, align 4, !tbaa !4
  %26 = call i32 @test_uint_eq(ptr noundef @.str.3, i32 noundef 320, ptr noundef @.str.38, ptr noundef @.str.39, i32 noundef %24, i32 noundef %25)
  %27 = icmp ne i32 %26, 0
  br i1 %27, label %29, label %28

28:                                               ; preds = %21
  store i32 0, ptr %7, align 4
  br label %57

29:                                               ; preds = %21
  %30 = load ptr, ptr %8, align 8, !tbaa !83
  %31 = getelementptr inbounds nuw %struct.ossl_ackm_probe_info_st, ptr %30, i32 0, i32 2
  %32 = getelementptr inbounds [3 x i32], ptr %31, i64 0, i64 0
  %33 = load i32, ptr %32, align 4, !tbaa !4
  %34 = load i32, ptr %11, align 4, !tbaa !4
  %35 = call i32 @test_uint_eq(ptr noundef @.str.3, i32 noundef 322, ptr noundef @.str.40, ptr noundef @.str.41, i32 noundef %33, i32 noundef %34)
  %36 = icmp ne i32 %35, 0
  br i1 %36, label %38, label %37

37:                                               ; preds = %29
  store i32 0, ptr %7, align 4
  br label %57

38:                                               ; preds = %29
  %39 = load ptr, ptr %8, align 8, !tbaa !83
  %40 = getelementptr inbounds nuw %struct.ossl_ackm_probe_info_st, ptr %39, i32 0, i32 2
  %41 = getelementptr inbounds [3 x i32], ptr %40, i64 0, i64 1
  %42 = load i32, ptr %41, align 4, !tbaa !4
  %43 = load i32, ptr %12, align 4, !tbaa !4
  %44 = call i32 @test_uint_eq(ptr noundef @.str.3, i32 noundef 324, ptr noundef @.str.42, ptr noundef @.str.43, i32 noundef %42, i32 noundef %43)
  %45 = icmp ne i32 %44, 0
  br i1 %45, label %47, label %46

46:                                               ; preds = %38
  store i32 0, ptr %7, align 4
  br label %57

47:                                               ; preds = %38
  %48 = load ptr, ptr %8, align 8, !tbaa !83
  %49 = getelementptr inbounds nuw %struct.ossl_ackm_probe_info_st, ptr %48, i32 0, i32 2
  %50 = getelementptr inbounds [3 x i32], ptr %49, i64 0, i64 2
  %51 = load i32, ptr %50, align 4, !tbaa !4
  %52 = load i32, ptr %13, align 4, !tbaa !4
  %53 = call i32 @test_uint_eq(ptr noundef @.str.3, i32 noundef 326, ptr noundef @.str.44, ptr noundef @.str.45, i32 noundef %51, i32 noundef %52)
  %54 = icmp ne i32 %53, 0
  br i1 %54, label %56, label %55

55:                                               ; preds = %47
  store i32 0, ptr %7, align 4
  br label %57

56:                                               ; preds = %47
  store i32 1, ptr %7, align 4
  br label %57

57:                                               ; preds = %56, %55, %46, %37, %28, %20
  %58 = load i32, ptr %7, align 4
  ret i32 %58
}