; Function Attrs: nounwind uwtable
define internal fastcc range(i32 0, 2) i32 @test_probe_counts(ptr noundef nonnull readonly captures(none) %0, i32 noundef range(i32 0, 2) %1, i32 noundef range(i32 0, 2) %2, i32 noundef range(i32 0, 2) %3) unnamed_addr #0 {
  %5 = getelementptr inbounds nuw i8, ptr %0, i64 4
  %6 = load i32, ptr %5, align 4, !tbaa !93
  %7 = tail call i32 @test_uint_eq(ptr noundef nonnull @.str.3, i32 noundef 318, ptr noundef nonnull @.str.36, ptr noundef nonnull @.str.37, i32 noundef %6, i32 noundef 0) #9
  %.not = icmp eq i32 %7, 0
  br i1 %.not, label %23, label %8

8:                                                ; preds = %4
  %9 = load i32, ptr %0, align 4, !tbaa !95
  %10 = tail call i32 @test_uint_eq(ptr noundef nonnull @.str.3, i32 noundef 320, ptr noundef nonnull @.str.38, ptr noundef nonnull @.str.39, i32 noundef %9, i32 noundef 0) #9
  %.not10 = icmp eq i32 %10, 0
  br i1 %.not10, label %23, label %11

11:                                               ; preds = %8
  %12 = getelementptr inbounds nuw i8, ptr %0, i64 8
  %13 = load i32, ptr %12, align 4, !tbaa !53
  %14 = tail call i32 @test_uint_eq(ptr noundef nonnull @.str.3, i32 noundef 322, ptr noundef nonnull @.str.40, ptr noundef nonnull @.str.41, i32 noundef %13, i32 noundef %1) #9
  %.not11 = icmp eq i32 %14, 0
  br i1 %.not11, label %23, label %15

15:                                               ; preds = %11
  %16 = getelementptr inbounds nuw i8, ptr %0, i64 12
  %17 = load i32, ptr %16, align 4, !tbaa !53
  %18 = tail call i32 @test_uint_eq(ptr noundef nonnull @.str.3, i32 noundef 324, ptr noundef nonnull @.str.42, ptr noundef nonnull @.str.43, i32 noundef %17, i32 noundef %2) #9
  %.not12 = icmp eq i32 %18, 0
  br i1 %.not12, label %23, label %19

19:                                               ; preds = %15
  %20 = getelementptr inbounds nuw i8, ptr %0, i64 16
  %21 = load i32, ptr %20, align 4, !tbaa !53
  %22 = tail call i32 @test_uint_eq(ptr noundef nonnull @.str.3, i32 noundef 326, ptr noundef nonnull @.str.44, ptr noundef nonnull @.str.45, i32 noundef %21, i32 noundef %3) #9
  %.not13 = icmp ne i32 %22, 0
  %. = zext i1 %.not13 to i32
  br label %23

23:                                               ; preds = %19, %15, %11, %8, %4
  %.0 = phi i32 [ 0, %4 ], [ 0, %8 ], [ 0, %11 ], [ 0, %15 ], [ %., %19 ]
  ret i32 %.0
}